target datalayout = "e-m:e-p270:32:32-p271:32:32-p272:64:64-i64:64-i128:128-f80:128-n8:16:32:64-S128"
target triple = "x86_64-pc-linux-gnu"

%struct._wmem_tree_t = type { ptr, ptr, ptr, i32, i32, ptr }
%struct._wmem_tree_node_t = type { ptr, ptr, ptr, ptr, ptr, i32, i8, i8 }

; Function Attrs: null_pointer_is_valid sspstrong uwtable
define internal ptr @create_node(ptr noundef %0, ptr noundef %1, ptr noundef %2, ptr noundef %3, i32 noundef %4, i1 noundef zeroext %5) #0 {
  %7 = alloca ptr, align 8
  %8 = alloca ptr, align 8
  %9 = alloca ptr, align 8
  %10 = alloca ptr, align 8
  %11 = alloca i32, align 4
  %12 = alloca i8, align 1
  %13 = alloca ptr, align 8
  store ptr %0, ptr %7, align 8
  store ptr %1, ptr %8, align 8
  store ptr %2, ptr %9, align 8
  store ptr %3, ptr %10, align 8
  store i32 %4, ptr %11, align 4
  %14 = zext i1 %5 to i8
  store i8 %14, ptr %12, align 1
  call void @llvm.lifetime.start.p0(i64 8, ptr %13) #6
  %15 = load ptr, ptr %7, align 8
  %16 = call noalias ptr @wmem_alloc(ptr noundef %15, i64 noundef 48) #7
  store ptr %16, ptr %13, align 8
  %17 = load ptr, ptr %13, align 8
  %18 = getelementptr inbounds nuw %struct._wmem_tree_node_t, ptr %17, i32 0, i32 1
  store ptr null, ptr %18, align 8
  %19 = load ptr, ptr %13, align 8
  %20 = getelementptr inbounds nuw %struct._wmem_tree_node_t, ptr %19, i32 0, i32 2
  store ptr null, ptr %20, align 8
  %21 = load ptr, ptr %8, align 8
  %22 = load ptr, ptr %13, align 8
  %23 = getelementptr inbounds nuw %struct._wmem_tree_node_t, ptr %22, i32 0, i32 0
  store ptr %21, ptr %23, align 8
  %24 = load ptr, ptr %9, align 8
  %25 = load ptr, ptr %13, align 8
  %26 = getelementptr inbounds nuw %struct._wmem_tree_node_t, ptr %25, i32 0, i32 3
  store ptr %24, ptr %26, align 8
  %27 = load ptr, ptr %10, align 8
  %28 = load ptr, ptr %13, align 8
  %29 = getelementptr inbounds nuw %struct._wmem_tree_node_t, ptr %28, i32 0, i32 4
  store ptr %27, ptr %29, align 8
  %30 = load i32, ptr %11, align 4
  %31 = load ptr, ptr %13, align 8
  %32 = getelementptr inbounds nuw %struct._wmem_tree_node_t, ptr %31, i32 0, i32 5
  store i32 %30, ptr %32, align 8
  %33 = load i8, ptr %12, align 1, !range !6, !noundef !7
  %34 = trunc i8 %33 to i1
  %35 = load ptr, ptr %13, align 8
  %36 = getelementptr inbounds nuw %struct._wmem_tree_node_t, ptr %35, i32 0, i32 6
  %37 = zext i1 %34 to i8
  store i8 %37, ptr %36, align 4
  %38 = load ptr, ptr %13, align 8
  %39 = getelementptr inbounds nuw %struct._wmem_tree_node_t, ptr %38, i32 0, i32 7
  store i8 0, ptr %39, align 1
  %40 = load ptr, ptr %13, align 8
  call void @llvm.lifetime.end.p0(i64 8, ptr %13) #6
  ret ptr %40
}

; Function Attrs: null_pointer_is_valid sspstrong uwtable
define hidden ptr @wmem_tree_insert_node(ptr noundef %0, ptr noundef %1, ptr noundef %2, ptr noundef %3) #0 {
  %5 = alloca ptr, align 8
  %6 = alloca ptr, align 8
  %7 = alloca ptr, align 8
  %8 = alloca ptr, align 8
  %9 = alloca ptr, align 8
  %10 = alloca ptr, align 8
  %11 = alloca ptr, align 8
  %12 = alloca i32, align 4
  %13 = alloca i32, align 4
  store ptr %0, ptr %6, align 8
  store ptr %1, ptr %7, align 8
  store ptr %2, ptr %8, align 8
  store ptr %3, ptr %9, align 8
  call void @llvm.lifetime.start.p0(i64 8, ptr %10) #6
  %14 = load ptr, ptr %6, align 8
  %15 = getelementptr inbounds nuw %struct._wmem_tree_t, ptr %14, i32 0, i32 2
  %16 = load ptr, ptr %15, align 8
  store ptr %16, ptr %10, align 8
  call void @llvm.lifetime.start.p0(i64 8, ptr %11) #6
  store ptr null, ptr %11, align 8
  %17 = load ptr, ptr %10, align 8
  %18 = icmp ne ptr %17, null
  br i1 %18, label %32, label %19

19:                                               ; preds = %4
  %20 = load ptr, ptr %6, align 8
  %21 = getelementptr inbounds nuw %struct._wmem_tree_t, ptr %20, i32 0, i32 1
  %22 = load ptr, ptr %21, align 8
  %23 = load ptr, ptr %10, align 8
  %24 = load ptr, ptr %7, align 8
  %25 = load ptr, ptr %8, align 8
  %26 = call ptr @create_node(ptr noundef %22, ptr noundef %23, ptr noundef %24, ptr noundef %25, i32 noundef 1, i1 noundef zeroext false)
  %27 = load ptr, ptr %6, align 8
  %28 = getelementptr inbounds nuw %struct._wmem_tree_t, ptr %27, i32 0, i32 2
  store ptr %26, ptr %28, align 8
  %29 = load ptr, ptr %6, align 8
  %30 = getelementptr inbounds nuw %struct._wmem_tree_t, ptr %29, i32 0, i32 2
  %31 = load ptr, ptr %30, align 8
  store ptr %31, ptr %5, align 8
  store i32 1, ptr %12, align 4
  br label %116

32:                                               ; preds = %4
  br label %33

33:                                               ; preds = %111, %32
  %34 = load ptr, ptr %11, align 8
  %35 = icmp ne ptr %34, null
  %36 = xor i1 %35, true
  br i1 %36, label %37, label %112

37:                                               ; preds = %33
  call void @llvm.lifetime.start.p0(i64 4, ptr %13) #6
  %38 = load ptr, ptr %9, align 8
  %39 = load ptr, ptr %7, align 8
  %40 = load ptr, ptr %10, align 8
  %41 = getelementptr inbounds nuw %struct._wmem_tree_node_t, ptr %40, i32 0, i32 3
  %42 = load ptr, ptr %41, align 8
  %43 = call i32 %38(ptr noundef %39, ptr noundef %42)
  store i32 %43, ptr %13, align 4
  %44 = load i32, ptr %13, align 4
  %45 = icmp eq i32 %44, 0
  br i1 %45, label %46, label %58

46:                                               ; preds = %37
  %47 = load ptr, ptr %8, align 8
  %48 = load ptr, ptr %10, align 8
  %49 = getelementptr inbounds nuw %struct._wmem_tree_node_t, ptr %48, i32 0, i32 4
  store ptr %47, ptr %49, align 8
  %50 = load ptr, ptr %8, align 8
  %51 = icmp ne ptr %50, null
  %52 = select i1 %51, i32 0, i32 1
  %53 = icmp ne i32 %52, 0
  %54 = load ptr, ptr %10, align 8
  %55 = getelementptr inbounds nuw %struct._wmem_tree_node_t, ptr %54, i32 0, i32 7
  %56 = zext i1 %53 to i8
  store i8 %56, ptr %55, align 1
  %57 = load ptr, ptr %10, align 8
  store ptr %57, ptr %5, align 8
  store i32 1, ptr %12, align 4
  br label %109

58:                                               ; preds = %37
  %59 = load i32, ptr %13, align 4
  %60 = icmp slt i32 %59, 0
  br i1 %60, label %61, label %82

61:                                               ; preds = %58
  %62 = load ptr, ptr %10, align 8
  %63 = getelementptr inbounds nuw %struct._wmem_tree_node_t, ptr %62, i32 0, i32 1
  %64 = load ptr, ptr %63, align 8
  %65 = icmp ne ptr %64, null
  br i1 %65, label %66, label %70

66:                                               ; preds = %61
  %67 = load ptr, ptr %10, align 8
  %68 = getelementptr inbounds nuw %struct._wmem_tree_node_t, ptr %67, i32 0, i32 1
  %69 = load ptr, ptr %68, align 8
  store ptr %69, ptr %10, align 8
  br label %81

70:                                               ; preds = %61
  %71 = load ptr, ptr %6, align 8
  %72 = getelementptr inbounds nuw %struct._wmem_tree_t, ptr %71, i32 0, i32 1
  %73 = load ptr, ptr %72, align 8
  %74 = load ptr, ptr %10, align 8
  %75 = load ptr, ptr %7, align 8
  %76 = load ptr, ptr %8, align 8
  %77 = call ptr @create_node(ptr noundef %73, ptr noundef %74, ptr noundef %75, ptr noundef %76, i32 noundef 0, i1 noundef zeroext false)
  store ptr %77, ptr %11, align 8
  %78 = load ptr, ptr %11, align 8
  %79 = load ptr, ptr %10, align 8
  %80 = getelementptr inbounds nuw %struct._wmem_tree_node_t, ptr %79, i32 0, i32 1
  store ptr %78, ptr %80, align 8
  br label %81

81:                                               ; preds = %70, %66
  br label %107

82:                                               ; preds = %58
  %83 = load i32, ptr %13, align 4
  %84 = icmp sgt i32 %83, 0
  br i1 %84, label %85, label %106

85:                                               ; preds = %82
  %86 = load ptr, ptr %10, align 8
  %87 = getelementptr inbounds nuw %struct._wmem_tree_node_t, ptr %86, i32 0, i32 2
  %88 = load ptr, ptr %87, align 8
  %89 = icmp ne ptr %88, null
  br i1 %89, label %90, label %94

90:                                               ; preds = %85
  %91 = load ptr, ptr %10, align 8
  %92 = getelementptr inbounds nuw %struct._wmem_tree_node_t, ptr %91, i32 0, i32 2
  %93 = load ptr, ptr %92, align 8
  store ptr %93, ptr %10, align 8
  br label %105

94:                                               ; preds = %85
  %95 = load ptr, ptr %6, align 8
  %96 = getelementptr inbounds nuw %struct._wmem_tree_t, ptr %95, i32 0, i32 1
  %97 = load ptr, ptr %96, align 8
  %98 = load ptr, ptr %10, align 8
  %99 = load ptr, ptr %7, align 8
  %100 = load ptr, ptr %8, align 8
  %101 = call ptr @create_node(ptr noundef %97, ptr noundef %98, ptr noundef %99, ptr noundef %100, i32 noundef 0, i1 noundef zeroext false)
  store ptr %101, ptr %11, align 8
  %102 = load ptr, ptr %11, align 8
  %103 = load ptr, ptr %10, align 8
  %104 = getelementptr inbounds nuw %struct._wmem_tree_node_t, ptr %103, i32 0, i32 2
  store ptr %102, ptr %104, align 8
  br label %105

105:                                              ; preds = %94, %90
  br label %106

106:                                              ; preds = %105, %82
  br label %107

107:                                              ; preds = %106, %81
  br label %108

108:                                              ; preds = %107
  store i32 0, ptr %12, align 4
  br label %109

109:                                              ; preds = %108, %46
  call void @llvm.lifetime.end.p0(i64 4, ptr %13) #6
  %110 = load i32, ptr %12, align 4
  switch i32 %110, label %116 [
    i32 0, label %111
  ]

111:                                              ; preds = %109
  br label %33, !llvm.loop !8

112:                                              ; preds = %33
  %113 = load ptr, ptr %6, align 8
  %114 = load ptr, ptr %11, align 8
  call void @rb_insert_case1(ptr noundef %113, ptr noundef %114)
  %115 = load ptr, ptr %11, align 8
  store ptr %115, ptr %5, align 8
  store i32 1, ptr %12, align 4
  br label %116

116:                                              ; preds = %112, %109, %19
  call void @llvm.lifetime.end.p0(i64 8, ptr %11) #6
  call void @llvm.lifetime.end.p0(i64 8, ptr %10) #6
  %117 = load ptr, ptr %5, align 8
  ret ptr %117
}

; Function Attrs: null_pointer_is_valid sspstrong uwtable
define void @wmem_tree_insert_string(ptr noundef %0, ptr noundef %1, ptr noundef %2, i32 noundef %3) #0 {
  %5 = alloca ptr, align 8
  %6 = alloca ptr, align 8
  %7 = alloca ptr, align 8
  %8 = alloca i32, align 4
  %9 = alloca ptr, align 8
  %10 = alloca ptr, align 8
  store ptr %0, ptr %5, align 8
  store ptr %1, ptr %6, align 8
  store ptr %2, ptr %7, align 8
  store i32 %3, ptr %8, align 4
  call void @llvm.lifetime.start.p0(i64 8, ptr %9) #6
  call void @llvm.lifetime.start.p0(i64 8, ptr %10) #6
  %11 = load ptr, ptr %5, align 8
  %12 = getelementptr inbounds nuw %struct._wmem_tree_t, ptr %11, i32 0, i32 1
  %13 = load ptr, ptr %12, align 8
  %14 = load ptr, ptr %6, align 8
  %15 = call noalias ptr @wmem_strdup(ptr noundef %13, ptr noundef %14)
  store ptr %15, ptr %9, align 8
  %16 = load i32, ptr %8, align 4
  %17 = and i32 %16, 1
  %18 = icmp ne i32 %17, 0
  br i1 %18, label %19, label %20

19:                                               ; preds = %4
  store ptr @g_ascii_strcasecmp, ptr %10, align 8
  br label %21

20:                                               ; preds = %4
  store ptr @strcmp, ptr %10, align 8
  br label %21

21:                                               ; preds = %20, %19
  %22 = load ptr, ptr %5, align 8
  %23 = load ptr, ptr %9, align 8
  %24 = load ptr, ptr %7, align 8
  %25 = load ptr, ptr %10, align 8
  %26 = call ptr @wmem_tree_insert_node(ptr noundef %22, ptr noundef %23, ptr noundef %24, ptr noundef %25)
  call void @llvm.lifetime.end.p0(i64 8, ptr %10) #6
  call void @llvm.lifetime.end.p0(i64 8, ptr %9) #6
  ret void
}