; Function Attrs: null_pointer_is_valid sspstrong uwtable
define void @wmem_tree_insert_string(ptr noundef captures(none) %0, ptr noundef %1, ptr noundef %2, i32 noundef %3) local_unnamed_addr #0 {
  %5 = getelementptr inbounds nuw i8, ptr %0, i64 8
  %6 = load ptr, ptr %5, align 8
  %7 = tail call noalias ptr @wmem_strdup(ptr noundef %6, ptr noundef %1)
  %8 = and i32 %3, 1
  %.not = icmp eq i32 %8, 0
  %9 = getelementptr inbounds nuw i8, ptr %0, i64 16
  %10 = load ptr, ptr %9, align 8
  %.not.i8 = icmp eq ptr %10, null
  br i1 %.not, label %.split, label %.split7

.split7:                                          ; preds = %4
  br i1 %.not.i8, label %11, label %.preheader.i

11:                                               ; preds = %.split7
  %12 = load ptr, ptr %5, align 8
  %13 = tail call noalias dereferenceable_or_null(48) ptr @wmem_alloc(ptr noundef %12, i64 noundef 48) #10
  %14 = getelementptr inbounds nuw i8, ptr %13, i64 24
  tail call void @llvm.memset.p0.i64(ptr noundef align 8 dereferenceable(24) %13, i8 0, i64 24, i1 false)
  store ptr %7, ptr %14, align 8
  %15 = getelementptr inbounds nuw i8, ptr %13, i64 32
  store ptr %2, ptr %15, align 8
  %16 = getelementptr inbounds nuw i8, ptr %13, i64 40
  store i32 1, ptr %16, align 8
  %17 = getelementptr inbounds nuw i8, ptr %13, i64 44
  store i8 0, ptr %17, align 4
  %18 = getelementptr inbounds nuw i8, ptr %13, i64 45
  store i8 0, ptr %18, align 1
  store ptr %13, ptr %9, align 8
  br label %wmem_tree_insert_node.exit

.preheader.i:                                     ; preds = %.split7, %51
  %.04462.i = phi ptr [ %.145.i, %51 ], [ %10, %.split7 ]
  %19 = getelementptr inbounds nuw i8, ptr %.04462.i, i64 24
  %20 = load ptr, ptr %19, align 8
  %21 = tail call i32 @g_ascii_strcasecmp(ptr noundef %7, ptr noundef %20)
  %.not56.i = icmp eq i32 %21, 0
  br i1 %.not56.i, label %.thread.i, label %25

.thread.i:                                        ; preds = %.preheader.i
  %22 = getelementptr inbounds nuw i8, ptr %.04462.i, i64 32
  store ptr %2, ptr %22, align 8
  %.not55.i = icmp eq ptr %2, null
  %23 = getelementptr inbounds nuw i8, ptr %.04462.i, i64 45
  %24 = zext i1 %.not55.i to i8
  store i8 %24, ptr %23, align 1
  br label %wmem_tree_insert_node.exit

25:                                               ; preds = %.preheader.i
  %26 = icmp slt i32 %21, 0
  br i1 %26, label %27, label %39

27:                                               ; preds = %25
  %28 = getelementptr inbounds nuw i8, ptr %.04462.i, i64 8
  %29 = load ptr, ptr %28, align 8
  %.not54.i = icmp eq ptr %29, null
  br i1 %.not54.i, label %30, label %51

30:                                               ; preds = %27
  %31 = load ptr, ptr %5, align 8
  %32 = tail call noalias dereferenceable_or_null(48) ptr @wmem_alloc(ptr noundef %31, i64 noundef 48) #10
  %33 = getelementptr inbounds nuw i8, ptr %32, i64 8
  tail call void @llvm.memset.p0.i64(ptr noundef nonnull align 8 dereferenceable(16) %33, i8 0, i64 16, i1 false)
  store ptr %.04462.i, ptr %32, align 8
  %34 = getelementptr inbounds nuw i8, ptr %32, i64 24
  store ptr %7, ptr %34, align 8
  %35 = getelementptr inbounds nuw i8, ptr %32, i64 32
  store ptr %2, ptr %35, align 8
  %36 = getelementptr inbounds nuw i8, ptr %32, i64 40
  store i32 0, ptr %36, align 8
  %37 = getelementptr inbounds nuw i8, ptr %32, i64 44
  store i8 0, ptr %37, align 4
  %38 = getelementptr inbounds nuw i8, ptr %32, i64 45
  store i8 0, ptr %38, align 1
  store ptr %32, ptr %28, align 8
  br label %51

39:                                               ; preds = %25
  %40 = getelementptr inbounds nuw i8, ptr %.04462.i, i64 16
  %41 = load ptr, ptr %40, align 8
  %.not53.i = icmp eq ptr %41, null
  br i1 %.not53.i, label %42, label %51

42:                                               ; preds = %39
  %43 = load ptr, ptr %5, align 8
  %44 = tail call noalias dereferenceable_or_null(48) ptr @wmem_alloc(ptr noundef %43, i64 noundef 48) #10
  %45 = getelementptr inbounds nuw i8, ptr %44, i64 8
  tail call void @llvm.memset.p0.i64(ptr noundef nonnull align 8 dereferenceable(16) %45, i8 0, i64 16, i1 false)
  store ptr %.04462.i, ptr %44, align 8
  %46 = getelementptr inbounds nuw i8, ptr %44, i64 24
  store ptr %7, ptr %46, align 8
  %47 = getelementptr inbounds nuw i8, ptr %44, i64 32
  store ptr %2, ptr %47, align 8
  %48 = getelementptr inbounds nuw i8, ptr %44, i64 40
  store i32 0, ptr %48, align 8
  %49 = getelementptr inbounds nuw i8, ptr %44, i64 44
  store i8 0, ptr %49, align 4
  %50 = getelementptr inbounds nuw i8, ptr %44, i64 45
  store i8 0, ptr %50, align 1
  store ptr %44, ptr %40, align 8
  br label %51

51:                                               ; preds = %42, %39, %30, %27
  %.145.i = phi ptr [ %.04462.i, %30 ], [ %.04462.i, %42 ], [ %29, %27 ], [ %41, %39 ]
  %.142.i = phi ptr [ %32, %30 ], [ %44, %42 ], [ null, %27 ], [ null, %39 ]
  %.not52.i = icmp eq ptr %.142.i, null
  br i1 %.not52.i, label %.preheader.i, label %52, !llvm.loop !8

52:                                               ; preds = %51
  tail call fastcc void @rb_insert_case1(ptr noundef %0, ptr noundef nonnull %.142.i)
  br label %wmem_tree_insert_node.exit

.split:                                           ; preds = %4
  br i1 %.not.i8, label %53, label %.preheader.i9

53:                                               ; preds = %.split
  %54 = load ptr, ptr %5, align 8
  %55 = tail call noalias dereferenceable_or_null(48) ptr @wmem_alloc(ptr noundef %54, i64 noundef 48) #10
  %56 = getelementptr inbounds nuw i8, ptr %55, i64 24
  tail call void @llvm.memset.p0.i64(ptr noundef align 8 dereferenceable(24) %55, i8 0, i64 24, i1 false)
  store ptr %7, ptr %56, align 8
  %57 = getelementptr inbounds nuw i8, ptr %55, i64 32
  store ptr %2, ptr %57, align 8
  %58 = getelementptr inbounds nuw i8, ptr %55, i64 40
  store i32 1, ptr %58, align 8
  %59 = getelementptr inbounds nuw i8, ptr %55, i64 44
  store i8 0, ptr %59, align 4
  %60 = getelementptr inbounds nuw i8, ptr %55, i64 45
  store i8 0, ptr %60, align 1
  store ptr %55, ptr %9, align 8
  br label %wmem_tree_insert_node.exit

.preheader.i9:                                    ; preds = %.split, %93
  %.04462.i10 = phi ptr [ %.145.i13, %93 ], [ %10, %.split ]
  %61 = getelementptr inbounds nuw i8, ptr %.04462.i10, i64 24
  %62 = load ptr, ptr %61, align 8
  %63 = tail call i32 @strcmp(ptr noundef %7, ptr noundef %62)
  %.not56.i11 = icmp eq i32 %63, 0
  br i1 %.not56.i11, label %.thread.i18, label %67

.thread.i18:                                      ; preds = %.preheader.i9
  %64 = getelementptr inbounds nuw i8, ptr %.04462.i10, i64 32
  store ptr %2, ptr %64, align 8
  %.not55.i19 = icmp eq ptr %2, null
  %65 = getelementptr inbounds nuw i8, ptr %.04462.i10, i64 45
  %66 = zext i1 %.not55.i19 to i8
  store i8 %66, ptr %65, align 1
  br label %wmem_tree_insert_node.exit

67:                                               ; preds = %.preheader.i9
  %68 = icmp slt i32 %63, 0
  br i1 %68, label %69, label %81

69:                                               ; preds = %67
  %70 = getelementptr inbounds nuw i8, ptr %.04462.i10, i64 8
  %71 = load ptr, ptr %70, align 8
  %.not54.i17 = icmp eq ptr %71, null
  br i1 %.not54.i17, label %72, label %93

72:                                               ; preds = %69
  %73 = load ptr, ptr %5, align 8
  %74 = tail call noalias dereferenceable_or_null(48) ptr @wmem_alloc(ptr noundef %73, i64 noundef 48) #10
  %75 = getelementptr inbounds nuw i8, ptr %74, i64 8
  tail call void @llvm.memset.p0.i64(ptr noundef nonnull align 8 dereferenceable(16) %75, i8 0, i64 16, i1 false)
  store ptr %.04462.i10, ptr %74, align 8
  %76 = getelementptr inbounds nuw i8, ptr %74, i64 24
  store ptr %7, ptr %76, align 8
  %77 = getelementptr inbounds nuw i8, ptr %74, i64 32
  store ptr %2, ptr %77, align 8
  %78 = getelementptr inbounds nuw i8, ptr %74, i64 40
  store i32 0, ptr %78, align 8
  %79 = getelementptr inbounds nuw i8, ptr %74, i64 44
  store i8 0, ptr %79, align 4
  %80 = getelementptr inbounds nuw i8, ptr %74, i64 45
  store i8 0, ptr %80, align 1
  store ptr %74, ptr %70, align 8
  br label %93

81:                                               ; preds = %67
  %82 = getelementptr inbounds nuw i8, ptr %.04462.i10, i64 16
  %83 = load ptr, ptr %82, align 8
  %.not53.i12 = icmp eq ptr %83, null
  br i1 %.not53.i12, label %84, label %93

84:                                               ; preds = %81
  %85 = load ptr, ptr %5, align 8
  %86 = tail call noalias dereferenceable_or_null(48) ptr @wmem_alloc(ptr noundef %85, i64 noundef 48) #10
  %87 = getelementptr inbounds nuw i8, ptr %86, i64 8
  tail call void @llvm.memset.p0.i64(ptr noundef nonnull align 8 dereferenceable(16) %87, i8 0, i64 16, i1 false)
  store ptr %.04462.i10, ptr %86, align 8
  %88 = getelementptr inbounds nuw i8, ptr %86, i64 24
  store ptr %7, ptr %88, align 8
  %89 = getelementptr inbounds nuw i8, ptr %86, i64 32
  store ptr %2, ptr %89, align 8
  %90 = getelementptr inbounds nuw i8, ptr %86, i64 40
  store i32 0, ptr %90, align 8
  %91 = getelementptr inbounds nuw i8, ptr %86, i64 44
  store i8 0, ptr %91, align 4
  %92 = getelementptr inbounds nuw i8, ptr %86, i64 45
  store i8 0, ptr %92, align 1
  store ptr %86, ptr %82, align 8
  br label %93

93:                                               ; preds = %84, %81, %72, %69
  %.145.i13 = phi ptr [ %.04462.i10, %72 ], [ %.04462.i10, %84 ], [ %71, %69 ], [ %83, %81 ]
  %.142.i14 = phi ptr [ %74, %72 ], [ %86, %84 ], [ null, %69 ], [ null, %81 ]
  %.not52.i15 = icmp eq ptr %.142.i14, null
  br i1 %.not52.i15, label %.preheader.i9, label %94, !llvm.loop !8

94:                                               ; preds = %93
  tail call fastcc void @rb_insert_case1(ptr noundef %0, ptr noundef nonnull %.142.i14)
  br label %wmem_tree_insert_node.exit

wmem_tree_insert_node.exit:                       ; preds = %94, %.thread.i18, %53, %52, %.thread.i, %11
  ret void
}